; ModuleID = '35/1684.c'
source_filename = "35/1684.c"
target datalayout = "e-m:e-p270:32:32-p271:32:32-p272:64:64-i64:64-f80:128-n8:16:32:64-S128"
target triple = "x86_64-pc-linux-gnu"

@.str = private unnamed_addr constant [6 x i8] c"%d,%d\00", align 1
@.str.1 = private unnamed_addr constant [3 x i8] c"%d\00", align 1
@.str.2 = private unnamed_addr constant [6 x i8] c"%d+%d\00", align 1
@.str.3 = private unnamed_addr constant [3 x i8] c"No\00", align 1

; Function Attrs: noinline nounwind uwtable
define dso_local i32 @main() #0 {
  %1 = alloca i32, align 4
  %2 = alloca [100 x [100 x i32]], align 16
  %3 = alloca i32, align 4
  %4 = alloca i32, align 4
  %5 = alloca i32, align 4
  %6 = alloca i32, align 4
  %7 = alloca i32, align 4
  %8 = alloca i32, align 4
  %9 = alloca i32, align 4
  %10 = alloca i32, align 4
  %11 = alloca i32, align 4
  %12 = alloca i32, align 4
  store i32 0, i32* %1, align 4
  store i32 0, i32* %11, align 4
  %13 = call i32 (i8*, ...) @__isoc99_scanf(i8* getelementptr inbounds ([6 x i8], [6 x i8]* @.str, i64 0, i64 0), i32* %3, i32* %4)
  store i32 0, i32* %5, align 4
  br label %14

14:                                               ; preds = %35, %0
  %15 = load i32, i32* %5, align 4
  %16 = load i32, i32* %3, align 4
  %17 = icmp slt i32 %15, %16
  br i1 %17, label %18, label %38

18:                                               ; preds = %14
  store i32 0, i32* %6, align 4
  br label %19

19:                                               ; preds = %31, %18
  %20 = load i32, i32* %6, align 4
  %21 = load i32, i32* %4, align 4
  %22 = icmp slt i32 %20, %21
  br i1 %22, label %23, label %34

23:                                               ; preds = %19
  %24 = load i32, i32* %5, align 4
  %25 = sext i32 %24 to i64
  %26 = getelementptr inbounds [100 x [100 x i32]], [100 x [100 x i32]]* %2, i64 0, i64 %25
  %27 = load i32, i32* %6, align 4
  %28 = sext i32 %27 to i64
  %29 = getelementptr inbounds [100 x i32], [100 x i32]* %26, i64 0, i64 %28
  %30 = call i32 (i8*, ...) @__isoc99_scanf(i8* getelementptr inbounds ([3 x i8], [3 x i8]* @.str.1, i64 0, i64 0), i32* %29)
  br label %31

31:                                               ; preds = %23
  %32 = load i32, i32* %6, align 4
  %33 = add nsw i32 %32, 1
  store i32 %33, i32* %6, align 4
  br label %19

34:                                               ; preds = %19
  br label %35

35:                                               ; preds = %34
  %36 = load i32, i32* %5, align 4
  %37 = add nsw i32 %36, 1
  store i32 %37, i32* %5, align 4
  br label %14

38:                                               ; preds = %14
  store i32 0, i32* %5, align 4
  br label %39

39:                                               ; preds = %117, %38
  %40 = load i32, i32* %5, align 4
  %41 = load i32, i32* %3, align 4
  %42 = icmp slt i32 %40, %41
  br i1 %42, label %43, label %120

43:                                               ; preds = %39
  %44 = load i32, i32* %4, align 4
  %45 = sub nsw i32 %44, 1
  store i32 %45, i32* %7, align 4
  store i32 0, i32* %6, align 4
  br label %46

46:                                               ; preds = %69, %43
  %47 = load i32, i32* %6, align 4
  %48 = load i32, i32* %4, align 4
  %49 = icmp slt i32 %47, %48
  br i1 %49, label %50, label %72

50:                                               ; preds = %46
  %51 = load i32, i32* %5, align 4
  %52 = sext i32 %51 to i64
  %53 = getelementptr inbounds [100 x [100 x i32]], [100 x [100 x i32]]* %2, i64 0, i64 %52
  %54 = load i32, i32* %6, align 4
  %55 = sext i32 %54 to i64
  %56 = getelementptr inbounds [100 x i32], [100 x i32]* %53, i64 0, i64 %55
  %57 = load i32, i32* %56, align 4
  %58 = load i32, i32* %5, align 4
  %59 = sext i32 %58 to i64
  %60 = getelementptr inbounds [100 x [100 x i32]], [100 x [100 x i32]]* %2, i64 0, i64 %59
  %61 = load i32, i32* %7, align 4
  %62 = sext i32 %61 to i64
  %63 = getelementptr inbounds [100 x i32], [100 x i32]* %60, i64 0, i64 %62
  %64 = load i32, i32* %63, align 4
  %65 = icmp sgt i32 %57, %64
  br i1 %65, label %66, label %68

66:                                               ; preds = %50
  %67 = load i32, i32* %6, align 4
  store i32 %67, i32* %7, align 4
  br label %68

68:                                               ; preds = %66, %50
  br label %69

69:                                               ; preds = %68
  %70 = load i32, i32* %6, align 4
  %71 = add nsw i32 %70, 1
  store i32 %71, i32* %6, align 4
  br label %46

72:                                               ; preds = %46
  %73 = load i32, i32* %5, align 4
  store i32 %73, i32* %8, align 4
  %74 = load i32, i32* %5, align 4
  store i32 %74, i32* %10, align 4
  store i32 0, i32* %9, align 4
  br label %75

75:                                               ; preds = %98, %72
  %76 = load i32, i32* %9, align 4
  %77 = load i32, i32* %3, align 4
  %78 = icmp slt i32 %76, %77
  br i1 %78, label %79, label %101

79:                                               ; preds = %75
  %80 = load i32, i32* %9, align 4
  %81 = sext i32 %80 to i64
  %82 = getelementptr inbounds [100 x [100 x i32]], [100 x [100 x i32]]* %2, i64 0, i64 %81
  %83 = load i32, i32* %7, align 4
  %84 = sext i32 %83 to i64
  %85 = getelementptr inbounds [100 x i32], [100 x i32]* %82, i64 0, i64 %84
  %86 = load i32, i32* %85, align 4
  %87 = load i32, i32* %10, align 4
  %88 = sext i32 %87 to i64
  %89 = getelementptr inbounds [100 x [100 x i32]], [100 x [100 x i32]]* %2, i64 0, i64 %88
  %90 = load i32, i32* %7, align 4
  %91 = sext i32 %90 to i64
  %92 = getelementptr inbounds [100 x i32], [100 x i32]* %89, i64 0, i64 %91
  %93 = load i32, i32* %92, align 4
  %94 = icmp slt i32 %86, %93
  br i1 %94, label %95, label %97

95:                                               ; preds = %79
  %96 = load i32, i32* %9, align 4
  store i32 %96, i32* %10, align 4
  br label %97

97:                                               ; preds = %95, %79
  br label %98

98:                                               ; preds = %97
  %99 = load i32, i32* %9, align 4
  %100 = add nsw i32 %99, 1
  store i32 %100, i32* %9, align 4
  br label %75

101:                                              ; preds = %75
  %102 = load i32, i32* %8, align 4
  %103 = load i32, i32* %10, align 4
  %104 = icmp eq i32 %102, %103
  br i1 %104, label %105, label %109

105:                                              ; preds = %101
  %106 = load i32, i32* %8, align 4
  %107 = load i32, i32* %7, align 4
  %108 = call i32 (i8*, ...) @printf(i8* getelementptr inbounds ([6 x i8], [6 x i8]* @.str.2, i64 0, i64 0), i32 %106, i32 %107)
  br label %120

109:                                              ; preds = %101
  %110 = load i32, i32* %8, align 4
  %111 = load i32, i32* %10, align 4
  %112 = icmp ne i32 %110, %111
  br i1 %112, label %113, label %116

113:                                              ; preds = %109
  %114 = load i32, i32* %11, align 4
  %115 = add nsw i32 %114, 1
  store i32 %115, i32* %11, align 4
  br label %116

116:                                              ; preds = %113, %109
  br label %117

117:                                              ; preds = %116
  %118 = load i32, i32* %5, align 4
  %119 = add nsw i32 %118, 1
  store i32 %119, i32* %5, align 4
  br label %39

120:                                              ; preds = %105, %39
  %121 = load i32, i32* %11, align 4
  %122 = load i32, i32* %3, align 4
  %123 = icmp eq i32 %121, %122
  br i1 %123, label %124, label %126

124:                                              ; preds = %120
  %125 = call i32 (i8*, ...) @printf(i8* getelementptr inbounds ([3 x i8], [3 x i8]* @.str.3, i64 0, i64 0))
  br label %126

126:                                              ; preds = %124, %120
  ret i32 0
}

declare dso_local i32 @__isoc99_scanf(i8*, ...) #1

declare dso_local i32 @printf(i8*, ...) #1


!llvm.module.flags = !{!0}
!llvm.ident = !{!1}

!0 = !{i32 1, !"wchar_size", i32 4}
!1 = !{!"clang version 10.0.0-4ubuntu1 "}
